; Function Attrs: nounwind uwtable
define void @Gia_ManTranStochUnlock(ptr noundef readonly captures(none) %0) local_unnamed_addr #0 {
  %2 = getelementptr inbounds nuw i8, ptr %0, i64 88
  %3 = load i32, ptr %2, align 8, !tbaa !26
  %.not = icmp eq i32 %3, 0
  br i1 %.not, label %8, label %4

4:                                                ; preds = %1
  %5 = getelementptr inbounds nuw i8, ptr %0, i64 96
  %6 = load ptr, ptr %5, align 8, !tbaa !29
  %7 = tail call i32 @pthread_mutex_unlock(ptr noundef %6) #14
  br label %8

8:                                                ; preds = %4, %1
  ret void
}